; Function Attrs: mustprogress uwtable
define void @_ZN5boost3log11v2_mt_posix4core12reset_filterEv(ptr nocapture noundef nonnull readonly align 8 dereferenceable(8) %0) local_unnamed_addr #4 align 2 personality ptr @__gxx_personality_v0 {
  %2 = load ptr, ptr %0, align 8, !tbaa !33
  %3 = tail call i32 @pthread_rwlock_wrlock(ptr noundef nonnull align 8 dereferenceable(56) %2) #21
  %4 = load ptr, ptr %0, align 8, !tbaa !33
  %5 = invoke noalias noundef nonnull dereferenceable(32) ptr @_Znwm(i64 noundef 32) #23
          to label %.noexc unwind label %17

.noexc:                                           ; preds = %1
  %6 = getelementptr inbounds nuw i8, ptr %4, i64 120
  store ptr @_ZN5boost3log11v2_mt_posix3aux14light_functionIFbRKNS1_19attribute_value_setEEE4implINS1_6filter14default_filterEE11invoke_implEPvS6_, ptr %5, align 8, !tbaa !45
  %7 = getelementptr inbounds nuw i8, ptr %5, i64 8
  store ptr @_ZN5boost3log11v2_mt_posix3aux14light_functionIFbRKNS1_19attribute_value_setEEE4implINS1_6filter14default_filterEE10clone_implEPKv, ptr %7, align 8, !tbaa !47
  %8 = getelementptr inbounds nuw i8, ptr %5, i64 16
  store ptr @_ZN5boost3log11v2_mt_posix3aux14light_functionIFbRKNS1_19attribute_value_setEEE4implINS1_6filter14default_filterEE12destroy_implEPv, ptr %8, align 8, !tbaa !48
  %9 = load ptr, ptr %6, align 8, !tbaa !49
  store ptr %5, ptr %6, align 8, !tbaa !49
  %.not.i.i.i.i = icmp eq ptr %9, null
  br i1 %.not.i.i.i.i, label %_ZN5boost3log11v2_mt_posix6filter5resetEv.exit, label %10

10:                                               ; preds = %.noexc
  %11 = getelementptr inbounds nuw i8, ptr %9, i64 16
  %12 = load ptr, ptr %11, align 8, !tbaa !48
  invoke void %12(ptr noundef nonnull %9)
          to label %_ZN5boost3log11v2_mt_posix6filter5resetEv.exit unwind label %13

13:                                               ; preds = %10
  %14 = landingpad { ptr, i32 }
          catch ptr null
  %15 = extractvalue { ptr, i32 } %14, 0
  tail call void @__clang_call_terminate(ptr %15) #22
  unreachable

_ZN5boost3log11v2_mt_posix6filter5resetEv.exit:   ; preds = %10, %.noexc
  %16 = tail call i32 @pthread_rwlock_unlock(ptr noundef nonnull align 8 dereferenceable(56) %2) #21
  ret void

17:                                               ; preds = %1
  %18 = landingpad { ptr, i32 }
          cleanup
  %19 = tail call i32 @pthread_rwlock_unlock(ptr noundef nonnull align 8 dereferenceable(56) %2) #21
  resume { ptr, i32 } %18
}